; ModuleID = '49/859.c'
source_filename = "49/859.c"
target datalayout = "e-m:e-p270:32:32-p271:32:32-p272:64:64-i64:64-f80:128-n8:16:32:64-S128"
target triple = "x86_64-pc-linux-gnu"

@.str = private unnamed_addr constant [3 x i8] c"%s\00", align 1
@.str.1 = private unnamed_addr constant [3 x i8] c"%c\00", align 1
@.str.2 = private unnamed_addr constant [2 x i8] c"\0A\00", align 1

; Function Attrs: noinline nounwind uwtable
define dso_local i32 @main() #0 {
  %1 = alloca i32, align 4
  %2 = alloca [500 x i8], align 16
  %3 = alloca i32, align 4
  %4 = alloca i32, align 4
  %5 = alloca i32, align 4
  %6 = alloca i32, align 4
  %7 = alloca i32, align 4
  %8 = alloca i32, align 4
  store i32 0, i32* %1, align 4
  %9 = getelementptr inbounds [500 x i8], [500 x i8]* %2, i64 0, i64 0
  %10 = call i32 (i8*, ...) @__isoc99_scanf(i8* getelementptr inbounds ([3 x i8], [3 x i8]* @.str, i64 0, i64 0), i8* %9)
  %11 = getelementptr inbounds [500 x i8], [500 x i8]* %2, i64 0, i64 0
  %12 = call i64 @strlen(i8* %11) #3
  %13 = trunc i64 %12 to i32
  store i32 %13, i32* %5, align 4
  store i32 2, i32* %3, align 4
  br label %14

14:                                               ; preds = %90, %0
  %15 = load i32, i32* %3, align 4
  %16 = load i32, i32* %5, align 4
  %17 = icmp sle i32 %15, %16
  br i1 %17, label %18, label %93

18:                                               ; preds = %14
  store i32 0, i32* %4, align 4
  br label %19

19:                                               ; preds = %86, %18
  %20 = load i32, i32* %4, align 4
  %21 = load i32, i32* %5, align 4
  %22 = load i32, i32* %3, align 4
  %23 = sub nsw i32 %21, %22
  %24 = icmp sle i32 %20, %23
  br i1 %24, label %25, label %89

25:                                               ; preds = %19
  store i32 -1, i32* %6, align 4
  %26 = load i32, i32* %4, align 4
  store i32 %26, i32* %7, align 4
  %27 = load i32, i32* %4, align 4
  %28 = mul nsw i32 2, %27
  %29 = load i32, i32* %3, align 4
  %30 = add nsw i32 %28, %29
  %31 = sub nsw i32 %30, 1
  store i32 %31, i32* %8, align 4
  br label %32

32:                                               ; preds = %57, %25
  %33 = load i32, i32* %7, align 4
  %34 = load i32, i32* %4, align 4
  %35 = load i32, i32* %3, align 4
  %36 = add nsw i32 %34, %35
  %37 = icmp slt i32 %33, %36
  br i1 %37, label %38, label %58

38:                                               ; preds = %32
  %39 = load i32, i32* %7, align 4
  %40 = sext i32 %39 to i64
  %41 = getelementptr inbounds [500 x i8], [500 x i8]* %2, i64 0, i64 %40
  %42 = load i8, i8* %41, align 1
  %43 = sext i8 %42 to i32
  %44 = load i32, i32* %8, align 4
  %45 = load i32, i32* %7, align 4
  %46 = sub nsw i32 %44, %45
  %47 = sext i32 %46 to i64
  %48 = getelementptr inbounds [500 x i8], [500 x i8]* %2, i64 0, i64 %47
  %49 = load i8, i8* %48, align 1
  %50 = sext i8 %49 to i32
  %51 = icmp eq i32 %43, %50
  br i1 %51, label %52, label %56

52:                                               ; preds = %38
  %53 = load i32, i32* %7, align 4
  store i32 %53, i32* %6, align 4
  %54 = load i32, i32* %7, align 4
  %55 = add nsw i32 %54, 1
  store i32 %55, i32* %7, align 4
  br label %57

56:                                               ; preds = %38
  br label %58

57:                                               ; preds = %52
  br label %32

58:                                               ; preds = %56, %32
  %59 = load i32, i32* %6, align 4
  %60 = load i32, i32* %3, align 4
  %61 = load i32, i32* %4, align 4
  %62 = add nsw i32 %60, %61
  %63 = sub nsw i32 %62, 1
  %64 = icmp eq i32 %59, %63
  br i1 %64, label %65, label %85

65:                                               ; preds = %58
  %66 = load i32, i32* %4, align 4
  store i32 %66, i32* %7, align 4
  br label %67

67:                                               ; preds = %80, %65
  %68 = load i32, i32* %7, align 4
  %69 = load i32, i32* %4, align 4
  %70 = load i32, i32* %3, align 4
  %71 = add nsw i32 %69, %70
  %72 = icmp slt i32 %68, %71
  br i1 %72, label %73, label %83

73:                                               ; preds = %67
  %74 = load i32, i32* %7, align 4
  %75 = sext i32 %74 to i64
  %76 = getelementptr inbounds [500 x i8], [500 x i8]* %2, i64 0, i64 %75
  %77 = load i8, i8* %76, align 1
  %78 = sext i8 %77 to i32
  %79 = call i32 (i8*, ...) @printf(i8* getelementptr inbounds ([3 x i8], [3 x i8]* @.str.1, i64 0, i64 0), i32 %78)
  br label %80

80:                                               ; preds = %73
  %81 = load i32, i32* %7, align 4
  %82 = add nsw i32 %81, 1
  store i32 %82, i32* %7, align 4
  br label %67

83:                                               ; preds = %67
  %84 = call i32 (i8*, ...) @printf(i8* getelementptr inbounds ([2 x i8], [2 x i8]* @.str.2, i64 0, i64 0))
  br label %85

85:                                               ; preds = %83, %58
  br label %86

86:                                               ; preds = %85
  %87 = load i32, i32* %4, align 4
  %88 = add nsw i32 %87, 1
  store i32 %88, i32* %4, align 4
  br label %19

89:                                               ; preds = %19
  br label %90

90:                                               ; preds = %89
  %91 = load i32, i32* %3, align 4
  %92 = add nsw i32 %91, 1
  store i32 %92, i32* %3, align 4
  br label %14

93:                                               ; preds = %14
  ret i32 0
}

declare dso_local i32 @__isoc99_scanf(i8*, ...) #1

; Function Attrs: nounwind readonly
declare dso_local i64 @strlen(i8*) #2

declare dso_local i32 @printf(i8*, ...) #1


!llvm.module.flags = !{!0}
!llvm.ident = !{!1}

!0 = !{i32 1, !"wchar_size", i32 4}
!1 = !{!"clang version 10.0.0-4ubuntu1 "}
